; Function Attrs: mustprogress nounwind uwtable
define hidden { i32, i64 } @_ZN6hermes2vm27typedArrayPrototypeIteratorEPvRNS0_7RuntimeENS0_10NativeArgsE(ptr noundef %ctx, ptr noundef nonnull align 8 dereferenceable(9832) %runtime, ptr nocapture noundef readonly %args) #0 {
entry:
  %0 = load ptr, ptr %args, align 8, !noalias !88
  %call4 = tail call noundef i32 @_ZN6hermes2vm16JSTypedArrayBase18validateTypedArrayERNS0_7RuntimeENS0_6HandleINS0_11HermesValueEEEb(ptr noundef nonnull align 8 dereferenceable(9832) %runtime, ptr %0, i1 noundef zeroext true) #10
  %cmp = icmp eq i32 %call4, 0
  br i1 %cmp, label %return, label %if.end

if.end:                                           ; preds = %entry
  %1 = ptrtoint ptr %ctx to i64
  %ctx.addr.0.extract.trunc = trunc i64 %1 to i32
  %2 = load ptr, ptr %args, align 8, !noalias !91
  %call12 = tail call ptr @_ZN6hermes2vm15JSArrayIterator6createERNS0_7RuntimeENS0_6HandleINS0_8JSObjectEEENS0_13IterationKindE(ptr noundef nonnull align 8 dereferenceable(9832) %runtime, ptr %2, i32 noundef %ctx.addr.0.extract.trunc) #10
  %3 = ptrtoint ptr %call12 to i64
  %or.i.i.i.i = or i64 %3, -281474976710656
  br label %return

return:                                           ; preds = %entry, %if.end
  %retval.sroa.0.0 = phi i32 [ 1, %if.end ], [ 0, %entry ]
  %retval.sroa.3.0 = phi i64 [ %or.i.i.i.i, %if.end ], [ undef, %entry ]
  %.fca.0.insert = insertvalue { i32, i64 } poison, i32 %retval.sroa.0.0, 0
  %.fca.1.insert = insertvalue { i32, i64 } %.fca.0.insert, i64 %retval.sroa.3.0, 1
  ret { i32, i64 } %.fca.1.insert
}